target datalayout = "e-m:e-p270:32:32-p271:32:32-p272:64:64-i64:64-i128:128-f80:128-n8:16:32:64-S128"
target triple = "x86_64-pc-linux-gnu"

%struct.AVFormatContext = type { ptr, ptr, ptr, ptr, ptr, i32, i32, ptr, i32, ptr, i32, ptr, ptr, i64, i64, i64, i32, i32, i32, i64, i64, ptr, i32, i32, ptr, i32, i32, i32, i32, ptr, i64, i32, i32, %struct.AVIOInterruptCB, i32, i32, i32, i32, i64, i32, i32, i32, i32, i32, i32, i32, i32, i32, i32, i32, i32, i64, i32, i32, i32, i32, i32, ptr, ptr, ptr, ptr, i32, ptr, ptr, ptr, ptr, i32, ptr, ptr, i64, ptr, ptr, ptr, i64 }
%struct.AVIOInterruptCB = type { ptr, ptr }
%struct.HashContext = type { ptr, ptr, ptr, i32, i32 }
%struct.AVPacket = type { ptr, i64, i64, ptr, i32, i32, i32, ptr, i32, i64, i64, ptr, ptr, %struct.AVRational }
%struct.AVRational = type { i32, i32 }

; Function Attrs: nounwind uwtable
define internal i32 @hash_write_packet(ptr noundef %0, ptr noundef %1) #0 {
  %3 = alloca ptr, align 8
  %4 = alloca ptr, align 8
  %5 = alloca ptr, align 8
  store ptr %0, ptr %3, align 8, !tbaa !4
  store ptr %1, ptr %4, align 8, !tbaa !9
  call void @llvm.lifetime.start.p0(i64 8, ptr %5) #5
  %6 = load ptr, ptr %3, align 8, !tbaa !4
  %7 = getelementptr inbounds nuw %struct.AVFormatContext, ptr %6, i32 0, i32 3
  %8 = load ptr, ptr %7, align 8, !tbaa !11
  store ptr %8, ptr %5, align 8, !tbaa !28
  %9 = load ptr, ptr %5, align 8, !tbaa !28
  %10 = getelementptr inbounds nuw %struct.HashContext, ptr %9, i32 0, i32 1
  %11 = load ptr, ptr %10, align 8, !tbaa !30
  %12 = load ptr, ptr %5, align 8, !tbaa !28
  %13 = getelementptr inbounds nuw %struct.HashContext, ptr %12, i32 0, i32 3
  %14 = load i32, ptr %13, align 8, !tbaa !33
  %15 = icmp ne i32 %14, 0
  br i1 %15, label %16, label %20

16:                                               ; preds = %2
  %17 = load ptr, ptr %4, align 8, !tbaa !9
  %18 = getelementptr inbounds nuw %struct.AVPacket, ptr %17, i32 0, i32 5
  %19 = load i32, ptr %18, align 4, !tbaa !34
  br label %21

20:                                               ; preds = %2
  br label %21

21:                                               ; preds = %20, %16
  %22 = phi i32 [ %19, %16 ], [ 0, %20 ]
  %23 = sext i32 %22 to i64
  %24 = getelementptr inbounds ptr, ptr %11, i64 %23
  %25 = load ptr, ptr %24, align 8, !tbaa !39
  %26 = load ptr, ptr %4, align 8, !tbaa !9
  %27 = getelementptr inbounds nuw %struct.AVPacket, ptr %26, i32 0, i32 3
  %28 = load ptr, ptr %27, align 8, !tbaa !41
  %29 = load ptr, ptr %4, align 8, !tbaa !9
  %30 = getelementptr inbounds nuw %struct.AVPacket, ptr %29, i32 0, i32 4
  %31 = load i32, ptr %30, align 8, !tbaa !42
  %32 = sext i32 %31 to i64
  call void @av_hash_update(ptr noundef %25, ptr noundef %28, i64 noundef %32)
  call void @llvm.lifetime.end.p0(i64 8, ptr %5) #5
  ret i32 0
}