; Function Attrs: nounwind uwtable
define internal noundef i32 @hash_write_packet(ptr noundef readonly captures(none) %0, ptr noundef readonly captures(none) %1) #0 {
  %3 = getelementptr inbounds nuw i8, ptr %0, i64 24
  %4 = load ptr, ptr %3, align 8, !tbaa !4
  %5 = getelementptr inbounds nuw i8, ptr %4, i64 8
  %6 = load ptr, ptr %5, align 8, !tbaa !24
  %7 = getelementptr inbounds nuw i8, ptr %4, i64 24
  %8 = load i32, ptr %7, align 8, !tbaa !27
  %.not = icmp eq i32 %8, 0
  br i1 %.not, label %13, label %9

9:                                                ; preds = %2
  %10 = getelementptr inbounds nuw i8, ptr %1, i64 36
  %11 = load i32, ptr %10, align 4, !tbaa !28
  %12 = sext i32 %11 to i64
  br label %13

13:                                               ; preds = %2, %9
  %14 = phi i64 [ %12, %9 ], [ 0, %2 ]
  %15 = getelementptr inbounds ptr, ptr %6, i64 %14
  %16 = load ptr, ptr %15, align 8, !tbaa !33
  %17 = getelementptr inbounds nuw i8, ptr %1, i64 24
  %18 = load ptr, ptr %17, align 8, !tbaa !35
  %19 = getelementptr inbounds nuw i8, ptr %1, i64 32
  %20 = load i32, ptr %19, align 8, !tbaa !36
  %21 = sext i32 %20 to i64
  tail call void @av_hash_update(ptr noundef %16, ptr noundef %18, i64 noundef %21) #6
  ret i32 0
}